	.syntax unified
	.cpu cortex-m4
	.eabi_attribute 27, 3
	.eabi_attribute 28, 1
	.fpu fpv4-sp-d16
	.eabi_attribute 20, 1
	.eabi_attribute 21, 1
	.eabi_attribute 23, 3
	.eabi_attribute 24, 1
	.eabi_attribute 25, 1
	.eabi_attribute 26, 1
	.eabi_attribute 30, 2
	.eabi_attribute 34, 1
	.eabi_attribute 18, 4
	.thumb
	.file	"main.c"
	.text
.Ltext0:
	.cfi_sections	.debug_frame
	.align	2
	.global	parseCommand
	.thumb
	.thumb_func
	.type	parseCommand, %function
parseCommand:
.LFB111:
	.file 1 "main.c"
	.loc 1 47 0
	.cfi_startproc
	@ args = 0, pretend = 0, frame = 0
	@ frame_needed = 0, uses_anonymous_args = 0
.LVL0:
	push	{r4, r5, r6, r7, r8, lr}
	.cfi_def_cfa_offset 24
	.cfi_offset 4, -24
	.cfi_offset 5, -20
	.cfi_offset 6, -16
	.cfi_offset 7, -12
	.cfi_offset 8, -8
	.cfi_offset 14, -4
	.loc 1 47 0
	mov	r7, r1
	.loc 1 48 0
	ldr	r1, .L69
.LVL1:
	.loc 1 47 0
	mov	r8, r0
	.loc 1 48 0
	bl	strtok
.LVL2:
	.loc 1 50 0
	mov	r5, r0
	cmp	r0, #0
	beq	.L4
	movs	r4, #1
.LVL3:
	.loc 1 57 0
	cmp	r4, #1
	.loc 1 50 0
	mov	r6, #2
	.loc 1 57 0
	beq	.L63
.L5:
	.loc 1 64 0
	cmp	r4, #2
	beq	.L64
	.loc 1 73 0
	cmp	r4, #3
	beq	.L65
	.loc 1 80 0
	cmp	r4, #4
	.loc 1 81 0
	mov	r1, r5
	.loc 1 80 0
	beq	.L66
	.loc 1 84 0
	add	r0, r7, #143
.LVL4:
	bl	strcpy
.LVL5:
	.loc 1 85 0
	movs	r0, #0
	strb	r0, [r7, #270]
	.loc 1 87 0
	ldr	r1, .L69
	bl	strtok
.LVL6:
	.loc 1 50 0
	mov	r5, r0
	cbz	r0, .L4
.LVL7:
	.loc 1 53 0
	cmp	r6, #6
	beq	.L4
.LVL8:
.L14:
	adds	r4, r4, #1
	.loc 1 57 0
	cmp	r4, #1
	add	r6, r6, #1
.LVL9:
	bne	.L5
.L63:
	.loc 1 58 0
	mov	r1, r5
	mov	r0, r7
.LVL10:
	bl	strcpy
.LVL11:
	.loc 1 59 0
	movs	r3, #0
	strb	r3, [r7, #4]
	.loc 1 60 0
	mov	r0, r7
	ldr	r1, .L69+4
	bl	strcmp
.LVL12:
	cbz	r0, .L6
	.loc 1 60 0 is_stmt 0 discriminator 1
	mov	r0, r7
	ldr	r1, .L69+8
	bl	strcmp
.LVL13:
	cbz	r0, .L6
	.loc 1 60 0 discriminator 2
	mov	r0, r7
	ldr	r1, .L69+12
	bl	strcmp
.LVL14:
	cbz	r0, .L6
	.loc 1 60 0 discriminator 3
	mov	r0, r7
	ldr	r1, .L69+16
	bl	strcmp
.LVL15:
	cbz	r0, .L6
	.loc 1 60 0 discriminator 4
	mov	r0, r7
	ldr	r1, .L69+20
	bl	strcmp
.LVL16:
	cbz	r0, .L6
.L9:
	.loc 1 61 0 is_stmt 1
	ldr	r0, .L69+24
	bl	printUSART2
.LVL17:
.L4:
	.loc 1 90 0
	movs	r3, #0
	strb	r3, [r8]
	pop	{r4, r5, r6, r7, r8, pc}
.LVL18:
.L64:
	.loc 1 65 0
	mov	r0, r5
.LVL19:
	ldr	r1, .L69+28
	bl	strcmp
.LVL20:
	cbz	r0, .L8
	.loc 1 65 0 is_stmt 0 discriminator 1
	mov	r0, r5
	ldr	r1, .L69+32
	bl	strcmp
.LVL21:
	cbnz	r0, .L67
.L8:
	.loc 1 71 0 is_stmt 1
	mov	r1, r5
	adds	r0, r7, #5
	bl	strcpy
.LVL22:
	.loc 1 72 0
	movs	r3, #0
	strb	r3, [r7, #9]
.L6:
	.loc 1 87 0
	movs	r0, #0
	ldr	r1, .L69
	bl	strtok
.LVL23:
	.loc 1 50 0
	mov	r5, r0
	cmp	r0, #0
	bne	.L14
	b	.L4
.L65:
	.loc 1 74 0
	mov	r0, r5
.LVL24:
	ldr	r1, .L69+36
	bl	strcmp
.LVL25:
	cbz	r0, .L11
	.loc 1 74 0 is_stmt 0 discriminator 1
	mov	r0, r5
	ldr	r1, .L69+40
	bl	strcmp
.LVL26:
	cbz	r0, .L11
	.loc 1 74 0 discriminator 2
	mov	r0, r5
	ldr	r1, .L69+44
	bl	strcmp
.LVL27:
	cbz	r0, .L11
	.loc 1 74 0 discriminator 3
	mov	r0, r5
	ldr	r1, .L69+48
	bl	strcmp
.LVL28:
	cbnz	r0, .L68
.L11:
	.loc 1 78 0 is_stmt 1
	mov	r1, r5
	add	r0, r7, #10
	bl	strcpy
.LVL29:
	.loc 1 79 0
	movs	r3, #0
	strb	r3, [r7, #14]
	b	.L6
.L67:
	.loc 1 65 0 discriminator 2
	mov	r0, r5
	ldr	r1, .L69+52
	bl	strcmp
.LVL30:
	cmp	r0, #0
	beq	.L8
	.loc 1 66 0
	mov	r0, r7
	ldr	r1, .L69+8
	bl	strcmp
.LVL31:
	cmp	r0, #0
	bne	.L8
	b	.L9
.LVL32:
.L66:
	.loc 1 81 0
	add	r0, r7, #15
.LVL33:
	bl	strcpy
.LVL34:
	.loc 1 82 0
	movs	r3, #0
	strb	r3, [r7, #142]
	b	.L6
.L68:
	.loc 1 75 0
	ldr	r0, .L69+56
	bl	printUSART2
.LVL35:
	.loc 1 76 0
	b	.L4
.L70:
	.align	2
.L69:
	.word	.LC0
	.word	.LC1
	.word	.LC2
	.word	.LC3
	.word	.LC4
	.word	.LC5
	.word	.LC6
	.word	.LC7
	.word	.LC8
	.word	.LC10
	.word	.LC11
	.word	.LC12
	.word	.LC13
	.word	.LC9
	.word	.LC14
	.cfi_endproc
.LFE111:
	.size	parseCommand, .-parseCommand
	.section	.text.startup,"ax",%progbits
	.align	2
	.global	main
	.thumb
	.thumb_func
	.type	main, %function
main:
.LFB110:
	.loc 1 19 0
	.cfi_startproc
	@ args = 0, pretend = 0, frame = 272
	@ frame_needed = 0, uses_anonymous_args = 0
	push	{r4, r5, lr}
	.cfi_def_cfa_offset 12
	.cfi_offset 4, -12
	.cfi_offset 5, -8
	.cfi_offset 14, -4
	.loc 1 20 0
	mov	r0, #364
	.loc 1 19 0
	sub	sp, sp, #276
	.cfi_def_cfa_offset 288
	.loc 1 20 0
	bl	initUSART2
.LVL36:
	.loc 1 21 0
	bl	enIrqUSART2
.LVL37:
	.loc 1 22 0
	bl	initSYSTIM
.LVL38:
	.loc 1 24 0
	mov	r0, sp
	movs	r1, #0
	movw	r2, #271
	ldr	r4, .L77
	bl	memset
.LVL39:
	.loc 1 28 0
	mov	r5, r4
.L72:
	ldrb	r3, [r4]	@ zero_extendqisi2
	cmp	r3, #49
	.loc 1 40 0
	mov	r0, #50
	.loc 1 28 0
	beq	.L76
.L73:
	.loc 1 40 0
	bl	delay_ms
.LVL40:
	.loc 1 28 0
	ldrb	r3, [r4]	@ zero_extendqisi2
	cmp	r3, #49
	.loc 1 40 0
	mov	r0, #50
	.loc 1 28 0
	bne	.L73
.L76:
	.loc 1 29 0
	mov	r1, sp
	ldr	r0, .L77+4
	bl	parseCommand
.LVL41:
	.loc 1 30 0
	ldr	r0, .L77+8
	bl	printUSART2
.LVL42:
	.loc 1 31 0
	movs	r3, #48
	.loc 1 32 0
	mov	r1, sp
	ldr	r0, .L77+12
	.loc 1 31 0
	strb	r3, [r5]
	.loc 1 32 0
	bl	printUSART2
.LVL43:
	.loc 1 33 0
	add	r1, sp, #5
	ldr	r0, .L77+16
	bl	printUSART2
.LVL44:
	.loc 1 34 0
	add	r1, sp, #10
	ldr	r0, .L77+20
	bl	printUSART2
.LVL45:
	.loc 1 35 0
	add	r1, sp, #15
	ldr	r0, .L77+24
	bl	printUSART2
.LVL46:
	.loc 1 36 0
	ldr	r0, .L77+28
	add	r1, sp, #143
	bl	printUSART2
.LVL47:
	b	.L72
.L78:
	.align	2
.L77:
	.word	dataReady
	.word	g_usart2_buffer
	.word	.LC15
	.word	.LC16
	.word	.LC17
	.word	.LC18
	.word	.LC19
	.word	.LC20
	.cfi_endproc
.LFE110:
	.size	main, .-main
	.comm	dataReady,1,1
	.comm	g_usart2_buffer,512,4
	.section	.rodata.str1.4,"aMS",%progbits,1
	.align	2
.LC0:
	.ascii	" \000"
	.space	2
.LC1:
	.ascii	"pbtn\000"
	.space	3
.LC2:
	.ascii	"led\000"
.LC3:
	.ascii	"help\000"
	.space	3
.LC4:
	.ascii	"map1\000"
	.space	3
.LC5:
	.ascii	"mapb\000"
	.space	3
.LC6:
	.ascii	"Invalid command\012\000"
	.space	3
.LC7:
	.ascii	"s\000"
	.space	2
.LC8:
	.ascii	"b\000"
	.space	2
.LC9:
	.ascii	"p\000"
	.space	2
.LC10:
	.ascii	"0\000"
	.space	2
.LC11:
	.ascii	"1\000"
	.space	2
.LC12:
	.ascii	"2\000"
	.space	2
.LC13:
	.ascii	"3\000"
	.space	2
.LC14:
	.ascii	"Invalid led number\012\000"
.LC15:
	.ascii	"\012\000"
	.space	2
.LC16:
	.ascii	" Param1: %s \012\000"
	.space	2
.LC17:
	.ascii	" Param2: %s \012\000"
	.space	2
.LC18:
	.ascii	" Param3: %s \012\000"
	.space	2
.LC19:
	.ascii	" Param4: %s \012\000"
	.space	2
.LC20:
	.ascii	" Param5: %s \012\000"
	.text
.Letext0:
	.file 2 "/home/tech/msut/STM32F407/gcc-arm-none-eabi/arm-none-eabi/include/machine/_default_types.h"
	.file 3 "/home/tech/msut/STM32F407/gcc-arm-none-eabi/arm-none-eabi/include/stdint.h"
	.file 4 "../../../STM32F407/Libraries/CMSIS/Include/core_cm4.h"
	.file 5 "usart.h"
	.file 6 "/home/tech/msut/STM32F407/gcc-arm-none-eabi/arm-none-eabi/include/string.h"
	.file 7 "delay.h"